; Function Attrs: mustprogress uwtable
define dso_local void @_ZN19cmUVJobServerClient4Impl20RequestExplicitTokenEv(ptr noundef nonnull align 8 dereferenceable(104) %0) local_unnamed_addr #3 align 2 {
  %2 = getelementptr inbounds i8, ptr %0, i64 100
  %3 = load i32, ptr %2, align 4
  %4 = add i32 %3, 1
  store i32 %4, ptr %2, align 4
  %5 = load ptr, ptr %0, align 8
  %6 = getelementptr inbounds i8, ptr %5, i64 24
  %7 = load ptr, ptr %6, align 8
  tail call void %7(ptr noundef nonnull align 8 dereferenceable(104) %0)
  ret void
}